; Function Attrs: mustprogress uwtable
define dso_local void @_ZNK11cmCMakePath16GetWideExtensionEv(ptr dead_on_unwind noalias writable sret(%class.cmCMakePath) align 8 %0, ptr noundef nonnull align 8 dereferenceable(40) %1) local_unnamed_addr #0 align 2 personality ptr @__gxx_personality_v0 {
  %3 = alloca %"class.std::allocator", align 1
  %4 = alloca %"class.std::__cxx11::basic_string", align 8
  %5 = alloca %"class.std::filesystem::__cxx11::path", align 8
  call void @_ZNKSt10filesystem7__cxx114path8filenameEv(ptr dead_on_unwind nonnull writable sret(%"class.std::filesystem::__cxx11::path") align 8 %5, ptr noundef nonnull align 8 dereferenceable(40) %1)
  call void @llvm.lifetime.start.p0(i64 1, ptr nonnull %3)
  call void @_ZNSaIcEC1Ev(ptr noundef nonnull align 1 dereferenceable(1) %3) #10, !noalias !14
  %6 = call noundef ptr @_ZNKSt7__cxx1112basic_stringIcSt11char_traitsIcESaIcEE5c_strEv(ptr noundef nonnull align 8 dereferenceable(32) %5) #10, !noalias !17
  %7 = call noundef i64 @_ZNKSt7__cxx1112basic_stringIcSt11char_traitsIcESaIcEE6lengthEv(ptr noundef nonnull align 8 dereferenceable(32) %5) #10, !noalias !17
  invoke void @_ZNSt7__cxx1112basic_stringIcSt11char_traitsIcESaIcEEC1EPKcmRKS3_(ptr noundef nonnull align 8 dereferenceable(32) %4, ptr noundef %6, i64 noundef %7, ptr noundef nonnull align 1 dereferenceable(1) %3)
          to label %9 unwind label %.body

.body:                                            ; preds = %2
  %8 = landingpad { ptr, i32 }
          cleanup
  call void @_ZNSaIcED1Ev(ptr noundef nonnull align 1 dereferenceable(1) %3) #10
  call void @_ZNSt10filesystem7__cxx114pathD2Ev(ptr noundef nonnull align 8 dereferenceable(40) %5) #10
  br label %44

9:                                                ; preds = %2
  call void @_ZNSaIcED1Ev(ptr noundef nonnull align 1 dereferenceable(1) %3) #10
  call void @llvm.lifetime.end.p0(i64 1, ptr nonnull %3)
  %10 = getelementptr inbounds i8, ptr %5, i64 32
  %11 = load ptr, ptr %10, align 8
  %.not.i.i.i = icmp eq ptr %11, null
  br i1 %.not.i.i.i, label %_ZNSt10filesystem7__cxx114pathD2Ev.exit, label %12

12:                                               ; preds = %9
  call void @_ZNKSt10filesystem7__cxx114path5_List13_Impl_deleterclEPNS2_5_ImplE(ptr noundef nonnull align 1 dereferenceable(1) %10, ptr noundef nonnull %11) #10
  br label %_ZNSt10filesystem7__cxx114pathD2Ev.exit

_ZNSt10filesystem7__cxx114pathD2Ev.exit:          ; preds = %9, %12
  store ptr null, ptr %10, align 8
  call void @_ZNSt7__cxx1112basic_stringIcSt11char_traitsIcESaIcEED1Ev(ptr noundef nonnull align 8 dereferenceable(32) %5) #10
  %13 = call noundef zeroext i1 @_ZNKSt7__cxx1112basic_stringIcSt11char_traitsIcESaIcEE5emptyEv(ptr noundef nonnull align 8 dereferenceable(32) %4) #10
  br i1 %13, label %20, label %14

14:                                               ; preds = %_ZNSt10filesystem7__cxx114pathD2Ev.exit
  %15 = call noundef i32 @_ZNKSt7__cxx1112basic_stringIcSt11char_traitsIcESaIcEE7compareEPKc(ptr noundef nonnull align 8 dereferenceable(32) %4, ptr noundef nonnull @.str) #10
  %16 = icmp eq i32 %15, 0
  br i1 %16, label %20, label %17

17:                                               ; preds = %14
  %18 = call noundef i32 @_ZNKSt7__cxx1112basic_stringIcSt11char_traitsIcESaIcEE7compareEPKc(ptr noundef nonnull align 8 dereferenceable(32) %4, ptr noundef nonnull @.str.1) #10
  %19 = icmp eq i32 %18, 0
  br i1 %19, label %20, label %27

20:                                               ; preds = %17, %14, %_ZNSt10filesystem7__cxx114pathD2Ev.exit
  call void @llvm.memset.p0.i64(ptr noundef nonnull align 8 dereferenceable(40) %0, i8 0, i64 40, i1 false)
  call void @_ZNSt7__cxx1112basic_stringIcSt11char_traitsIcESaIcEEC1Ev(ptr noundef nonnull align 8 dereferenceable(32) %0) #10
  %21 = getelementptr inbounds i8, ptr %0, i64 32
  invoke void @_ZNSt10filesystem7__cxx114path5_ListC1Ev(ptr noundef nonnull align 8 dereferenceable(8) %21)
          to label %_ZN11cmCMakePathC2Ev.exit unwind label %22

22:                                               ; preds = %20
  %23 = landingpad { ptr, i32 }
          catch ptr null
  %24 = extractvalue { ptr, i32 } %23, 0
  call void @__clang_call_terminate(ptr %24) #11
  unreachable

25:                                               ; preds = %27
  %26 = landingpad { ptr, i32 }
          cleanup
  call void @_ZNSt7__cxx1112basic_stringIcSt11char_traitsIcESaIcEED1Ev(ptr noundef nonnull align 8 dereferenceable(32) %4) #10
  br label %44

27:                                               ; preds = %17
  %28 = invoke noundef nonnull align 1 dereferenceable(1) ptr @_ZNSt7__cxx1112basic_stringIcSt11char_traitsIcESaIcEEixEm(ptr noundef nonnull align 8 dereferenceable(32) %4, i64 noundef 0)
          to label %29 unwind label %25

29:                                               ; preds = %27
  %30 = load i8, ptr %28, align 1
  %31 = icmp eq i8 %30, 46
  %32 = zext i1 %31 to i64
  %33 = call noundef i64 @_ZNKSt7__cxx1112basic_stringIcSt11char_traitsIcESaIcEE4findEcm(ptr noundef nonnull align 8 dereferenceable(32) %4, i8 noundef signext 46, i64 noundef %32) #10
  %.not = icmp eq i64 %33, -1
  br i1 %.not, label %39, label %34

34:                                               ; preds = %29
  %35 = call noundef ptr @_ZNSt7__cxx1112basic_stringIcSt11char_traitsIcESaIcEE4dataEv(ptr noundef nonnull align 8 dereferenceable(32) %4) #10
  %36 = getelementptr inbounds i8, ptr %35, i64 %33
  %37 = call noundef i64 @_ZNKSt7__cxx1112basic_stringIcSt11char_traitsIcESaIcEE6lengthEv(ptr noundef nonnull align 8 dereferenceable(32) %4) #10
  %38 = sub i64 %37, %33
  call void @_ZN11cmCMakePathC2ESt17basic_string_viewIcSt11char_traitsIcEENS_6formatE(ptr noundef nonnull align 8 dereferenceable(40) %0, i64 %38, ptr %36, i8 noundef zeroext 1) #10
  br label %_ZN11cmCMakePathC2Ev.exit

39:                                               ; preds = %29
  call void @llvm.memset.p0.i64(ptr noundef nonnull align 8 dereferenceable(40) %0, i8 0, i64 40, i1 false)
  call void @_ZNSt7__cxx1112basic_stringIcSt11char_traitsIcESaIcEEC1Ev(ptr noundef nonnull align 8 dereferenceable(32) %0) #10
  %40 = getelementptr inbounds i8, ptr %0, i64 32
  invoke void @_ZNSt10filesystem7__cxx114path5_ListC1Ev(ptr noundef nonnull align 8 dereferenceable(8) %40)
          to label %_ZN11cmCMakePathC2Ev.exit unwind label %41

41:                                               ; preds = %39
  %42 = landingpad { ptr, i32 }
          catch ptr null
  %43 = extractvalue { ptr, i32 } %42, 0
  call void @__clang_call_terminate(ptr %43) #11
  unreachable

_ZN11cmCMakePathC2Ev.exit:                        ; preds = %39, %20, %34
  call void @_ZNSt7__cxx1112basic_stringIcSt11char_traitsIcESaIcEED1Ev(ptr noundef nonnull align 8 dereferenceable(32) %4) #10
  ret void

44:                                               ; preds = %25, %.body
  %.pn = phi { ptr, i32 } [ %26, %25 ], [ %8, %.body ]
  resume { ptr, i32 } %.pn
}